target datalayout = "e-m:e-p270:32:32-p271:32:32-p272:64:64-i64:64-i128:128-f80:128-n8:16:32:64-S128"
target triple = "x86_64-pc-linux-gnu"

%struct.ForEachState = type { ptr, i32 }
%struct.List = type { i32, i32, i32, ptr, [0 x %union.ListCell] }
%union.ListCell = type { ptr }
%struct.SortGroupClause = type { i32, i32, i32, i32, i8, i8, i8 }

; Function Attrs: inlinehint nounwind uwtable
define internal i32 @list_length(ptr noundef %0) #4 {
  %2 = alloca ptr, align 8
  store ptr %0, ptr %2, align 8
  %3 = load ptr, ptr %2, align 8
  %4 = icmp ne ptr %3, null
  br i1 %4, label %5, label %9

5:                                                ; preds = %1
  %6 = load ptr, ptr %2, align 8
  %7 = getelementptr inbounds nuw %struct.List, ptr %6, i32 0, i32 1
  %8 = load i32, ptr %7, align 4
  br label %10

9:                                                ; preds = %1
  br label %10

10:                                               ; preds = %9, %5
  %11 = phi i32 [ %8, %5 ], [ 0, %9 ]
  ret i32 %11
}

; Function Attrs: nounwind uwtable
define dso_local ptr @extract_grouping_ops(ptr noundef %0) #0 {
  %2 = alloca ptr, align 8
  %3 = alloca i32, align 4
  %4 = alloca i32, align 4
  %5 = alloca ptr, align 8
  %6 = alloca ptr, align 8
  %7 = alloca %struct.ForEachState, align 8
  %8 = alloca ptr, align 8
  store ptr %0, ptr %2, align 8
  call void @llvm.lifetime.start.p0(i64 4, ptr %3) #7
  %9 = load ptr, ptr %2, align 8
  %10 = call i32 @list_length(ptr noundef %9)
  store i32 %10, ptr %3, align 4
  call void @llvm.lifetime.start.p0(i64 4, ptr %4) #7
  store i32 0, ptr %4, align 4
  call void @llvm.lifetime.start.p0(i64 8, ptr %5) #7
  call void @llvm.lifetime.start.p0(i64 8, ptr %6) #7
  %11 = load i32, ptr %3, align 4
  %12 = sext i32 %11 to i64
  %13 = mul i64 4, %12
  %14 = call ptr @palloc(i64 noundef %13)
  store ptr %14, ptr %5, align 8
  call void @llvm.lifetime.start.p0(i64 16, ptr %7) #7
  %15 = getelementptr inbounds nuw %struct.ForEachState, ptr %7, i32 0, i32 0
  %16 = load ptr, ptr %2, align 8
  store ptr %16, ptr %15, align 8
  %17 = getelementptr inbounds nuw %struct.ForEachState, ptr %7, i32 0, i32 1
  store i32 0, ptr %17, align 8
  %18 = getelementptr i8, ptr %7, i64 12
  call void @llvm.memset.p0.i64(ptr align 4 %18, i8 0, i64 4, i1 false)
  br label %19

19:                                               ; preds = %57, %1
  %20 = getelementptr inbounds nuw %struct.ForEachState, ptr %7, i32 0, i32 0
  %21 = load ptr, ptr %20, align 8
  %22 = icmp ne ptr %21, null
  br i1 %22, label %23, label %40

23:                                               ; preds = %19
  %24 = getelementptr inbounds nuw %struct.ForEachState, ptr %7, i32 0, i32 1
  %25 = load i32, ptr %24, align 8
  %26 = getelementptr inbounds nuw %struct.ForEachState, ptr %7, i32 0, i32 0
  %27 = load ptr, ptr %26, align 8
  %28 = getelementptr inbounds nuw %struct.List, ptr %27, i32 0, i32 1
  %29 = load i32, ptr %28, align 4
  %30 = icmp slt i32 %25, %29
  br i1 %30, label %31, label %40

31:                                               ; preds = %23
  %32 = getelementptr inbounds nuw %struct.ForEachState, ptr %7, i32 0, i32 0
  %33 = load ptr, ptr %32, align 8
  %34 = getelementptr inbounds nuw %struct.List, ptr %33, i32 0, i32 3
  %35 = load ptr, ptr %34, align 8
  %36 = getelementptr inbounds nuw %struct.ForEachState, ptr %7, i32 0, i32 1
  %37 = load i32, ptr %36, align 8
  %38 = sext i32 %37 to i64
  %39 = getelementptr inbounds %union.ListCell, ptr %35, i64 %38
  store ptr %39, ptr %6, align 8
  br label %41

40:                                               ; preds = %23, %19
  store ptr null, ptr %6, align 8
  br label %41

41:                                               ; preds = %40, %31
  %42 = phi i32 [ 1, %31 ], [ 0, %40 ]
  %43 = icmp ne i32 %42, 0
  br i1 %43, label %45, label %44

44:                                               ; preds = %41
  call void @llvm.lifetime.end.p0(i64 16, ptr %7) #7
  br label %61

45:                                               ; preds = %41
  call void @llvm.lifetime.start.p0(i64 8, ptr %8) #7
  %46 = load ptr, ptr %6, align 8
  %47 = load ptr, ptr %46, align 8
  store ptr %47, ptr %8, align 8
  %48 = load ptr, ptr %8, align 8
  %49 = getelementptr inbounds nuw %struct.SortGroupClause, ptr %48, i32 0, i32 2
  %50 = load i32, ptr %49, align 4
  %51 = load ptr, ptr %5, align 8
  %52 = load i32, ptr %4, align 4
  %53 = sext i32 %52 to i64
  %54 = getelementptr inbounds i32, ptr %51, i64 %53
  store i32 %50, ptr %54, align 4
  %55 = load i32, ptr %4, align 4
  %56 = add i32 %55, 1
  store i32 %56, ptr %4, align 4
  call void @llvm.lifetime.end.p0(i64 8, ptr %8) #7
  br label %57

57:                                               ; preds = %45
  %58 = getelementptr inbounds nuw %struct.ForEachState, ptr %7, i32 0, i32 1
  %59 = load i32, ptr %58, align 8
  %60 = add i32 %59, 1
  store i32 %60, ptr %58, align 8
  br label %19, !llvm.loop !19

61:                                               ; preds = %44
  %62 = load ptr, ptr %5, align 8
  call void @llvm.lifetime.end.p0(i64 8, ptr %6) #7
  call void @llvm.lifetime.end.p0(i64 8, ptr %5) #7
  call void @llvm.lifetime.end.p0(i64 4, ptr %4) #7
  call void @llvm.lifetime.end.p0(i64 4, ptr %3) #7
  ret ptr %62
}