; Function Attrs: nounwind uwtable
define dso_local ptr @extract_grouping_ops(ptr noundef readonly captures(address_is_null) %0) local_unnamed_addr #0 {
  %.not.i = icmp eq ptr %0, null
  br i1 %.not.i, label %list_length.exit.thread, label %.lr.ph

list_length.exit.thread:                          ; preds = %1
  %2 = tail call ptr @palloc(i64 noundef 0) #10
  br label %._crit_edge

.lr.ph:                                           ; preds = %1
  %3 = getelementptr inbounds nuw i8, ptr %0, i64 4
  %4 = load i32, ptr %3, align 4
  %5 = sext i32 %4 to i64
  %6 = shl nsw i64 %5, 2
  %7 = tail call ptr @palloc(i64 noundef %6) #10
  %8 = getelementptr inbounds nuw i8, ptr %0, i64 4
  %9 = getelementptr inbounds nuw i8, ptr %0, i64 16
  %10 = load i32, ptr %8, align 4
  %11 = icmp sgt i32 %10, 0
  br i1 %11, label %.lr.ph22, label %._crit_edge

._crit_edge:                                      ; preds = %.lr.ph22, %list_length.exit.thread, %.lr.ph
  %12 = phi ptr [ %2, %list_length.exit.thread ], [ %7, %.lr.ph ], [ %7, %.lr.ph22 ]
  ret ptr %12

.lr.ph22:                                         ; preds = %.lr.ph, %.lr.ph22
  %indvars.iv = phi i64 [ %indvars.iv.next, %.lr.ph22 ], [ 0, %.lr.ph ]
  %13 = load ptr, ptr %9, align 8
  %14 = getelementptr inbounds nuw %union.ListCell, ptr %13, i64 %indvars.iv
  %15 = load ptr, ptr %14, align 8
  %16 = getelementptr inbounds nuw i8, ptr %15, i64 8
  %17 = load i32, ptr %16, align 4
  %18 = getelementptr inbounds nuw i32, ptr %7, i64 %indvars.iv
  store i32 %17, ptr %18, align 4
  %indvars.iv.next = add nuw nsw i64 %indvars.iv, 1
  %19 = load i32, ptr %8, align 4
  %20 = sext i32 %19 to i64
  %21 = icmp slt i64 %indvars.iv.next, %20
  br i1 %21, label %.lr.ph22, label %._crit_edge
}